; Function Attrs: mustprogress uwtable
define hidden void @_ZNK4cvc58internal13FloatingPoint3maxERKS1_(ptr dead_on_unwind noalias writable sret(%"struct.std::pair") align 8 %0, ptr noundef nonnull readonly align 8 captures(none) dereferenceable(8) %1, ptr noundef nonnull readonly align 8 captures(none) dereferenceable(8) %2) local_unnamed_addr #3 align 2 personality ptr @__gxx_personality_v0 {
  %4 = alloca %"class.cvc5::internal::FloatingPoint", align 8
  %5 = alloca %"class.cvc5::internal::FloatingPoint", align 8
  call void @llvm.lifetime.start.p0(i64 8, ptr nonnull %4) #20
  tail call void @llvm.experimental.noalias.scope.decl(metadata !37)
  %6 = tail call noalias noundef nonnull dereferenceable(64) ptr @_Znwm(i64 noundef 64) #17, !noalias !37
  %7 = load ptr, ptr %1, align 8, !tbaa !3, !noalias !37
  %8 = load ptr, ptr %2, align 8, !tbaa !3, !noalias !37
  invoke void @_ZNK4cvc58internal20FloatingPointLiteral8maxTotalERKS1_b(ptr dead_on_unwind nonnull writable sret(%"class.cvc5::internal::FloatingPointLiteral") align 8 %6, ptr noundef nonnull align 8 dereferenceable(64) %7, ptr noundef nonnull align 8 dereferenceable(64) %8, i1 noundef zeroext true)
          to label %_ZNK4cvc58internal13FloatingPoint8maxTotalERKS1_b.exit unwind label %9, !noalias !37

common.resume:                                    ; preds = %.body, %9
  %common.resume.op = phi { ptr, i32 } [ %10, %9 ], [ %.pn, %.body ]
  resume { ptr, i32 } %common.resume.op

9:                                                ; preds = %3
  %10 = landingpad { ptr, i32 }
          cleanup
  tail call void @_ZdlPvm(ptr noundef nonnull %6, i64 noundef 64) #18, !noalias !37
  br label %common.resume

_ZNK4cvc58internal13FloatingPoint8maxTotalERKS1_b.exit: ; preds = %3
  store ptr %6, ptr %4, align 8, !tbaa !3, !alias.scope !37
  call void @llvm.lifetime.start.p0(i64 8, ptr nonnull %5) #20
  tail call void @llvm.experimental.noalias.scope.decl(metadata !40)
  %11 = invoke noalias noundef nonnull dereferenceable(64) ptr @_Znwm(i64 noundef 64) #17
          to label %.noexc unwind label %38

.noexc:                                           ; preds = %_ZNK4cvc58internal13FloatingPoint8maxTotalERKS1_b.exit
  %12 = load ptr, ptr %1, align 8, !tbaa !3, !noalias !40
  %13 = load ptr, ptr %2, align 8, !tbaa !3, !noalias !40
  invoke void @_ZNK4cvc58internal20FloatingPointLiteral8maxTotalERKS1_b(ptr dead_on_unwind nonnull writable sret(%"class.cvc5::internal::FloatingPointLiteral") align 8 %11, ptr noundef nonnull align 8 dereferenceable(64) %12, ptr noundef nonnull align 8 dereferenceable(64) %13, i1 noundef zeroext false)
          to label %16 unwind label %14, !noalias !40

14:                                               ; preds = %.noexc
  %15 = landingpad { ptr, i32 }
          cleanup
  tail call void @_ZdlPvm(ptr noundef nonnull %11, i64 noundef 64) #18, !noalias !40
  br label %.body

16:                                               ; preds = %.noexc
  store ptr %11, ptr %5, align 8, !tbaa !3, !alias.scope !40
  %17 = invoke noundef zeroext i1 @_ZNK4cvc58internal20FloatingPointLiteraleqERKS1_(ptr noundef nonnull align 8 dereferenceable(64) %6, ptr noundef nonnull align 8 dereferenceable(64) %11)
          to label %_ZNK4cvc58internal13FloatingPointeqERKS1_.exit unwind label %40

_ZNK4cvc58internal13FloatingPointeqERKS1_.exit:   ; preds = %16
  invoke void @_ZN4cvc58internal13FloatingPointC2ERKS1_(ptr noundef nonnull align 8 dereferenceable(9) %0, ptr noundef nonnull align 8 dereferenceable(8) %4)
          to label %18 unwind label %40

18:                                               ; preds = %_ZNK4cvc58internal13FloatingPointeqERKS1_.exit
  %19 = zext i1 %17 to i8
  %20 = getelementptr inbounds nuw i8, ptr %0, i64 8
  store i8 %19, ptr %20, align 8, !tbaa !43
  %21 = getelementptr inbounds nuw i8, ptr %11, i64 48
  invoke void @__gmpz_clear(ptr noundef nonnull align 8 dereferenceable(16) %21)
          to label %_ZN4cvc58internal9BitVectorD2Ev.exit.i.i.i.i.i unwind label %22

22:                                               ; preds = %18
  %23 = landingpad { ptr, i32 }
          catch ptr null
  %24 = extractvalue { ptr, i32 } %23, 0
  tail call void @__clang_call_terminate(ptr %24) #19
  unreachable

_ZN4cvc58internal9BitVectorD2Ev.exit.i.i.i.i.i:   ; preds = %18
  %25 = getelementptr inbounds nuw i8, ptr %11, i64 24
  invoke void @__gmpz_clear(ptr noundef nonnull align 8 dereferenceable(16) %25)
          to label %29 unwind label %26

26:                                               ; preds = %_ZN4cvc58internal9BitVectorD2Ev.exit.i.i.i.i.i
  %27 = landingpad { ptr, i32 }
          catch ptr null
  %28 = extractvalue { ptr, i32 } %27, 0
  tail call void @__clang_call_terminate(ptr %28) #19
  unreachable

29:                                               ; preds = %_ZN4cvc58internal9BitVectorD2Ev.exit.i.i.i.i.i
  tail call void @_ZdlPvm(ptr noundef nonnull %11, i64 noundef 64) #18
  call void @llvm.lifetime.end.p0(i64 8, ptr nonnull %5) #20
  %30 = getelementptr inbounds nuw i8, ptr %6, i64 48
  invoke void @__gmpz_clear(ptr noundef nonnull align 8 dereferenceable(16) %30)
          to label %_ZN4cvc58internal9BitVectorD2Ev.exit.i.i.i.i.i10 unwind label %31

31:                                               ; preds = %29
  %32 = landingpad { ptr, i32 }
          catch ptr null
  %33 = extractvalue { ptr, i32 } %32, 0
  tail call void @__clang_call_terminate(ptr %33) #19
  unreachable

_ZN4cvc58internal9BitVectorD2Ev.exit.i.i.i.i.i10: ; preds = %29
  %34 = getelementptr inbounds nuw i8, ptr %6, i64 24
  invoke void @__gmpz_clear(ptr noundef nonnull align 8 dereferenceable(16) %34)
          to label %_ZN4cvc58internal13FloatingPointD2Ev.exit12 unwind label %35

35:                                               ; preds = %_ZN4cvc58internal9BitVectorD2Ev.exit.i.i.i.i.i10
  %36 = landingpad { ptr, i32 }
          catch ptr null
  %37 = extractvalue { ptr, i32 } %36, 0
  tail call void @__clang_call_terminate(ptr %37) #19
  unreachable

_ZN4cvc58internal13FloatingPointD2Ev.exit12:      ; preds = %_ZN4cvc58internal9BitVectorD2Ev.exit.i.i.i.i.i10
  tail call void @_ZdlPvm(ptr noundef nonnull %6, i64 noundef 64) #18
  call void @llvm.lifetime.end.p0(i64 8, ptr nonnull %4) #20
  ret void

38:                                               ; preds = %_ZNK4cvc58internal13FloatingPoint8maxTotalERKS1_b.exit
  %39 = landingpad { ptr, i32 }
          cleanup
  br label %.body

40:                                               ; preds = %_ZNK4cvc58internal13FloatingPointeqERKS1_.exit, %16
  %41 = landingpad { ptr, i32 }
          cleanup
  call void @_ZN4cvc58internal13FloatingPointD2Ev(ptr noundef nonnull align 8 dereferenceable(8) %5) #20
  br label %.body

.body:                                            ; preds = %38, %14, %40
  %.pn = phi { ptr, i32 } [ %41, %40 ], [ %39, %38 ], [ %15, %14 ]
  call void @llvm.lifetime.end.p0(i64 8, ptr nonnull %5) #20
  call void @_ZN4cvc58internal13FloatingPointD2Ev(ptr noundef nonnull align 8 dereferenceable(8) %4) #20
  call void @llvm.lifetime.end.p0(i64 8, ptr nonnull %4) #20
  br label %common.resume
}